target datalayout = "e-m:e-p270:32:32-p271:32:32-p272:64:64-i64:64-i128:128-f80:128-n8:16:32:64-S128"
target triple = "x86_64-pc-linux-gnu"

%struct.H5HF_huge_bt2_dir_rec_t = type { i64, i64 }

@H5HF_init_g = external global i8, align 1
@H5_libterm_g = external global i8, align 1

; Function Attrs: nounwind uwtable
define internal i32 @H5HF__huge_bt2_dir_compare(ptr noundef %0, ptr noundef %1, ptr noundef %2) #0 {
  %4 = alloca ptr, align 8
  %5 = alloca ptr, align 8
  %6 = alloca ptr, align 8
  %7 = alloca ptr, align 8
  %8 = alloca ptr, align 8
  store ptr %0, ptr %4, align 8, !tbaa !3
  store ptr %1, ptr %5, align 8, !tbaa !3
  store ptr %2, ptr %6, align 8, !tbaa !21
  call void @llvm.lifetime.start.p0(i64 8, ptr %7) #6
  %9 = load ptr, ptr %4, align 8, !tbaa !3
  store ptr %9, ptr %7, align 8, !tbaa !62
  call void @llvm.lifetime.start.p0(i64 8, ptr %8) #6
  %10 = load ptr, ptr %5, align 8, !tbaa !3
  store ptr %10, ptr %8, align 8, !tbaa !62
  %11 = load i8, ptr @H5HF_init_g, align 1, !tbaa !9, !range !11, !noundef !12
  %12 = trunc i8 %11 to i1
  br i1 %12, label %17, label %13

13:                                               ; preds = %3
  %14 = load i8, ptr @H5_libterm_g, align 1, !tbaa !9, !range !11, !noundef !12
  %15 = trunc i8 %14 to i1
  %16 = xor i1 %15, true
  br label %17

17:                                               ; preds = %13, %3
  %18 = phi i1 [ true, %3 ], [ %16, %13 ]
  %19 = xor i1 %18, true
  %20 = xor i1 %19, true
  %21 = zext i1 %20 to i32
  %22 = sext i32 %21 to i64
  %23 = call i64 @llvm.expect.i64(i64 %22, i64 1)
  %24 = icmp ne i64 %23, 0
  br i1 %24, label %25, label %71

25:                                               ; preds = %17
  %26 = load ptr, ptr %7, align 8, !tbaa !62
  %27 = getelementptr inbounds nuw %struct.H5HF_huge_bt2_dir_rec_t, ptr %26, i32 0, i32 0
  %28 = load i64, ptr %27, align 8, !tbaa !64
  %29 = load ptr, ptr %8, align 8, !tbaa !62
  %30 = getelementptr inbounds nuw %struct.H5HF_huge_bt2_dir_rec_t, ptr %29, i32 0, i32 0
  %31 = load i64, ptr %30, align 8, !tbaa !64
  %32 = icmp ult i64 %28, %31
  br i1 %32, label %33, label %35

33:                                               ; preds = %25
  %34 = load ptr, ptr %6, align 8, !tbaa !21
  store i32 -1, ptr %34, align 4, !tbaa !25
  br label %70

35:                                               ; preds = %25
  %36 = load ptr, ptr %7, align 8, !tbaa !62
  %37 = getelementptr inbounds nuw %struct.H5HF_huge_bt2_dir_rec_t, ptr %36, i32 0, i32 0
  %38 = load i64, ptr %37, align 8, !tbaa !64
  %39 = load ptr, ptr %8, align 8, !tbaa !62
  %40 = getelementptr inbounds nuw %struct.H5HF_huge_bt2_dir_rec_t, ptr %39, i32 0, i32 0
  %41 = load i64, ptr %40, align 8, !tbaa !64
  %42 = icmp ugt i64 %38, %41
  br i1 %42, label %43, label %45

43:                                               ; preds = %35
  %44 = load ptr, ptr %6, align 8, !tbaa !21
  store i32 1, ptr %44, align 4, !tbaa !25
  br label %69

45:                                               ; preds = %35
  %46 = load ptr, ptr %7, align 8, !tbaa !62
  %47 = getelementptr inbounds nuw %struct.H5HF_huge_bt2_dir_rec_t, ptr %46, i32 0, i32 1
  %48 = load i64, ptr %47, align 8, !tbaa !66
  %49 = load ptr, ptr %8, align 8, !tbaa !62
  %50 = getelementptr inbounds nuw %struct.H5HF_huge_bt2_dir_rec_t, ptr %49, i32 0, i32 1
  %51 = load i64, ptr %50, align 8, !tbaa !66
  %52 = icmp ult i64 %48, %51
  br i1 %52, label %53, label %55

53:                                               ; preds = %45
  %54 = load ptr, ptr %6, align 8, !tbaa !21
  store i32 -1, ptr %54, align 4, !tbaa !25
  br label %68

55:                                               ; preds = %45
  %56 = load ptr, ptr %7, align 8, !tbaa !62
  %57 = getelementptr inbounds nuw %struct.H5HF_huge_bt2_dir_rec_t, ptr %56, i32 0, i32 1
  %58 = load i64, ptr %57, align 8, !tbaa !66
  %59 = load ptr, ptr %8, align 8, !tbaa !62
  %60 = getelementptr inbounds nuw %struct.H5HF_huge_bt2_dir_rec_t, ptr %59, i32 0, i32 1
  %61 = load i64, ptr %60, align 8, !tbaa !66
  %62 = icmp ugt i64 %58, %61
  br i1 %62, label %63, label %65

63:                                               ; preds = %55
  %64 = load ptr, ptr %6, align 8, !tbaa !21
  store i32 1, ptr %64, align 4, !tbaa !25
  br label %67

65:                                               ; preds = %55
  %66 = load ptr, ptr %6, align 8, !tbaa !21
  store i32 0, ptr %66, align 4, !tbaa !25
  br label %67

67:                                               ; preds = %65, %63
  br label %68

68:                                               ; preds = %67, %53
  br label %69

69:                                               ; preds = %68, %43
  br label %70

70:                                               ; preds = %69, %33
  br label %71

71:                                               ; preds = %70, %17
  call void @llvm.lifetime.end.p0(i64 8, ptr %8) #6
  call void @llvm.lifetime.end.p0(i64 8, ptr %7) #6
  ret i32 0
}